target datalayout = "e-m:e-p270:32:32-p271:32:32-p272:64:64-i64:64-i128:128-f80:128-n8:16:32:64-S128"
target triple = "x86_64-unknown-linux-gnu"

%"class.google::protobuf::io::ZeroCopyOutputStream" = type { ptr }
%"class.absl::lts_20230802::Cord" = type { %"class.absl::lts_20230802::Cord::InlineRep" }
%"class.absl::lts_20230802::Cord::InlineRep" = type { %"class.absl::lts_20230802::cord_internal::InlineData" }
%"class.absl::lts_20230802::cord_internal::InlineData" = type { %"struct.absl::lts_20230802::cord_internal::InlineData::Rep" }
%"struct.absl::lts_20230802::cord_internal::InlineData::Rep" = type { %union.anon.10 }
%union.anon.10 = type { %"struct.absl::lts_20230802::cord_internal::InlineData::Rep::AsTree" }
%"struct.absl::lts_20230802::cord_internal::InlineData::Rep::AsTree" = type { i64, ptr }
%"class.google::protobuf::io::CordOutputStream" = type { %"class.google::protobuf::io::ZeroCopyOutputStream", %"class.absl::lts_20230802::Cord", i64, i32, %"class.absl::lts_20230802::CordBuffer" }
%"class.absl::lts_20230802::CordBuffer" = type { %"struct.absl::lts_20230802::CordBuffer::Rep" }
%"struct.absl::lts_20230802::CordBuffer::Rep" = type { %union.anon.11 }
%union.anon.11 = type { %"struct.absl::lts_20230802::CordBuffer::Rep::Long" }
%"struct.absl::lts_20230802::CordBuffer::Rep::Long" = type { ptr, ptr }
%"struct.absl::lts_20230802::cord_internal::CordRep" = type { i64, %"class.absl::lts_20230802::cord_internal::RefcountAndFlags", i8, [3 x i8] }
%"class.absl::lts_20230802::cord_internal::RefcountAndFlags" = type { %"struct.std::atomic" }
%"struct.std::atomic" = type { %"struct.std::__atomic_base" }
%"struct.std::__atomic_base" = type { i32 }
%"struct.absl::lts_20230802::CordBuffer::Rep::Short" = type { i8, [15 x i8] }

; Function Attrs: mustprogress nounwind uwtable
define linkonce_odr hidden noundef i64 @_ZNK4absl12lts_2023080213cord_internal10InlineData3Rep11inline_sizeEv(ptr noundef nonnull align 8 dereferenceable(16) %this) #4 comdat align 2 {
entry:
  %this.addr = alloca ptr, align 8
  store ptr %this, ptr %this.addr, align 8
  %this1 = load ptr, ptr %this.addr, align 8
  %call = call noundef signext i8 @_ZNK4absl12lts_2023080213cord_internal10InlineData3Rep3tagEv(ptr noundef nonnull align 8 dereferenceable(16) %this1)
  %conv = sext i8 %call to i64
  %shr = lshr i64 %conv, 1
  ret i64 %shr
}

; Function Attrs: mustprogress nounwind uwtable
define linkonce_odr hidden noundef ptr @_ZNK4absl12lts_2023080213cord_internal10InlineData3Rep4treeEv(ptr noundef nonnull align 8 dereferenceable(16) %this) #4 comdat align 2 {
entry:
  %this.addr = alloca ptr, align 8
  store ptr %this, ptr %this.addr, align 8
  %this1 = load ptr, ptr %this.addr, align 8
  %0 = getelementptr inbounds %"struct.absl::lts_20230802::cord_internal::InlineData::Rep", ptr %this1, i32 0, i32 0
  %rep = getelementptr inbounds %"struct.absl::lts_20230802::cord_internal::InlineData::Rep::AsTree", ptr %0, i32 0, i32 1
  %1 = load ptr, ptr %rep, align 8
  ret ptr %1
}

; Function Attrs: mustprogress nounwind uwtable
define linkonce_odr hidden noundef signext i8 @_ZNK4absl12lts_2023080213cord_internal10InlineData3Rep3tagEv(ptr noundef nonnull align 8 dereferenceable(16) %this) #4 comdat align 2 {
entry:
  %this.addr = alloca ptr, align 8
  store ptr %this, ptr %this.addr, align 8
  %this1 = load ptr, ptr %this.addr, align 8
  %arrayidx = getelementptr inbounds i8, ptr %this1, i64 0
  %0 = load i8, ptr %arrayidx, align 1
  ret i8 %0
}

; Function Attrs: mustprogress uwtable
define linkonce_odr hidden noundef i64 @_ZNK4absl12lts_2023080213cord_internal10InlineData11inline_sizeEv(ptr noundef nonnull align 8 dereferenceable(16) %this) #5 comdat align 2 {
entry:
  %this.addr = alloca ptr, align 8
  store ptr %this, ptr %this.addr, align 8
  %this1 = load ptr, ptr %this.addr, align 8
  %rep_ = getelementptr inbounds %"class.absl::lts_20230802::cord_internal::InlineData", ptr %this1, i32 0, i32 0
  %call = call noundef i64 @_ZNK4absl12lts_2023080213cord_internal10InlineData3Rep11inline_sizeEv(ptr noundef nonnull align 8 dereferenceable(16) %rep_)
  ret i64 %call
}

; Function Attrs: mustprogress uwtable
define linkonce_odr hidden noundef ptr @_ZNK4absl12lts_2023080213cord_internal10InlineData7as_treeEv(ptr noundef nonnull align 8 dereferenceable(16) %this) #5 comdat align 2 {
entry:
  %this.addr = alloca ptr, align 8
  store ptr %this, ptr %this.addr, align 8
  %this1 = load ptr, ptr %this.addr, align 8
  %rep_ = getelementptr inbounds %"class.absl::lts_20230802::cord_internal::InlineData", ptr %this1, i32 0, i32 0
  %call = call noundef ptr @_ZNK4absl12lts_2023080213cord_internal10InlineData3Rep4treeEv(ptr noundef nonnull align 8 dereferenceable(16) %rep_)
  ret ptr %call
}

; Function Attrs: mustprogress uwtable
define linkonce_odr hidden noundef zeroext i1 @_ZNK4absl12lts_2023080213cord_internal10InlineData7is_treeEv(ptr noundef nonnull align 8 dereferenceable(16) %this) #5 comdat align 2 {
entry:
  %this.addr = alloca ptr, align 8
  store ptr %this, ptr %this.addr, align 8
  %this1 = load ptr, ptr %this.addr, align 8
  %rep_ = getelementptr inbounds %"class.absl::lts_20230802::cord_internal::InlineData", ptr %this1, i32 0, i32 0
  %call = call noundef signext i8 @_ZNK4absl12lts_2023080213cord_internal10InlineData3Rep3tagEv(ptr noundef nonnull align 8 dereferenceable(16) %rep_)
  %conv = sext i8 %call to i32
  %and = and i32 %conv, 1
  %cmp = icmp ne i32 %and, 0
  ret i1 %cmp
}

; Function Attrs: mustprogress uwtable
define linkonce_odr hidden noundef i64 @_ZNK4absl12lts_202308024Cord9InlineRep11inline_sizeEv(ptr noundef nonnull align 8 dereferenceable(16) %this) #5 comdat align 2 {
entry:
  %this.addr = alloca ptr, align 8
  store ptr %this, ptr %this.addr, align 8
  %this1 = load ptr, ptr %this.addr, align 8
  %data_ = getelementptr inbounds %"class.absl::lts_20230802::Cord::InlineRep", ptr %this1, i32 0, i32 0
  %call = call noundef i64 @_ZNK4absl12lts_2023080213cord_internal10InlineData11inline_sizeEv(ptr noundef nonnull align 8 dereferenceable(16) %data_)
  ret i64 %call
}

; Function Attrs: mustprogress uwtable
define linkonce_odr hidden noundef ptr @_ZNK4absl12lts_202308024Cord9InlineRep7as_treeEv(ptr noundef nonnull align 8 dereferenceable(16) %this) #5 comdat align 2 {
entry:
  %this.addr = alloca ptr, align 8
  store ptr %this, ptr %this.addr, align 8
  %this1 = load ptr, ptr %this.addr, align 8
  %data_ = getelementptr inbounds %"class.absl::lts_20230802::Cord::InlineRep", ptr %this1, i32 0, i32 0
  %call = call noundef ptr @_ZNK4absl12lts_2023080213cord_internal10InlineData7as_treeEv(ptr noundef nonnull align 8 dereferenceable(16) %data_)
  ret ptr %call
}

; Function Attrs: mustprogress uwtable
define linkonce_odr hidden noundef zeroext i1 @_ZNK4absl12lts_202308024Cord9InlineRep7is_treeEv(ptr noundef nonnull align 8 dereferenceable(16) %this) #5 comdat align 2 {
entry:
  %this.addr = alloca ptr, align 8
  store ptr %this, ptr %this.addr, align 8
  %this1 = load ptr, ptr %this.addr, align 8
  %data_ = getelementptr inbounds %"class.absl::lts_20230802::Cord::InlineRep", ptr %this1, i32 0, i32 0
  %call = call noundef zeroext i1 @_ZNK4absl12lts_2023080213cord_internal10InlineData7is_treeEv(ptr noundef nonnull align 8 dereferenceable(16) %data_)
  ret i1 %call
}

; Function Attrs: mustprogress nounwind uwtable
define linkonce_odr hidden noundef ptr @_ZNK4absl12lts_2023080210CordBuffer3Rep3repEv(ptr noundef nonnull align 8 dereferenceable(16) %this) #4 comdat align 2 {
entry:
  %this.addr = alloca ptr, align 8
  store ptr %this, ptr %this.addr, align 8
  %this1 = load ptr, ptr %this.addr, align 8
  %0 = getelementptr inbounds %"struct.absl::lts_20230802::CordBuffer::Rep", ptr %this1, i32 0, i32 0
  %rep = getelementptr inbounds %"struct.absl::lts_20230802::CordBuffer::Rep::Long", ptr %0, i32 0, i32 0
  %1 = load ptr, ptr %rep, align 8
  ret ptr %1
}

; Function Attrs: mustprogress nounwind uwtable
define linkonce_odr hidden noundef i64 @_ZNK4absl12lts_2023080210CordBuffer3Rep12short_lengthEv(ptr noundef nonnull align 8 dereferenceable(16) %this) #4 comdat align 2 {
entry:
  %this.addr = alloca ptr, align 8
  store ptr %this, ptr %this.addr, align 8
  %this1 = load ptr, ptr %this.addr, align 8
  %0 = getelementptr inbounds %"struct.absl::lts_20230802::CordBuffer::Rep", ptr %this1, i32 0, i32 0
  %raw_size = getelementptr inbounds %"struct.absl::lts_20230802::CordBuffer::Rep::Short", ptr %0, i32 0, i32 0
  %1 = load i8, ptr %raw_size, align 8
  %conv = sext i8 %1 to i32
  %shr = ashr i32 %conv, 1
  %conv2 = sext i32 %shr to i64
  ret i64 %conv2
}

; Function Attrs: mustprogress nounwind uwtable
define linkonce_odr hidden noundef zeroext i1 @_ZNK4absl12lts_2023080210CordBuffer3Rep8is_shortEv(ptr noundef nonnull align 8 dereferenceable(16) %this) #4 comdat align 2 {
entry:
  %this.addr = alloca ptr, align 8
  %offset = alloca i64, align 8
  store ptr %this, ptr %this.addr, align 8
  %this1 = load ptr, ptr %this.addr, align 8
  store i64 0, ptr %offset, align 8
  %arrayidx = getelementptr inbounds i8, ptr %this1, i64 0
  %0 = load i8, ptr %arrayidx, align 1
  %conv = sext i8 %0 to i32
  %and = and i32 %conv, 1
  %cmp = icmp ne i32 %and, 0
  ret i1 %cmp
}

; Function Attrs: mustprogress uwtable
define linkonce_odr hidden noundef i64 @_ZNK4absl12lts_202308024Cord9InlineRep4sizeEv(ptr noundef nonnull align 8 dereferenceable(16) %this) #5 comdat align 2 {
entry:
  %this.addr = alloca ptr, align 8
  store ptr %this, ptr %this.addr, align 8
  %this1 = load ptr, ptr %this.addr, align 8
  %call = call noundef zeroext i1 @_ZNK4absl12lts_202308024Cord9InlineRep7is_treeEv(ptr noundef nonnull align 8 dereferenceable(16) %this1)
  br i1 %call, label %cond.true, label %cond.false

cond.true:                                        ; preds = %entry
  %call2 = call noundef ptr @_ZNK4absl12lts_202308024Cord9InlineRep7as_treeEv(ptr noundef nonnull align 8 dereferenceable(16) %this1)
  %length = getelementptr inbounds %"struct.absl::lts_20230802::cord_internal::CordRep", ptr %call2, i32 0, i32 0
  %0 = load i64, ptr %length, align 8
  br label %cond.end

cond.false:                                       ; preds = %entry
  %call3 = call noundef i64 @_ZNK4absl12lts_202308024Cord9InlineRep11inline_sizeEv(ptr noundef nonnull align 8 dereferenceable(16) %this1)
  br label %cond.end

cond.end:                                         ; preds = %cond.false, %cond.true
  %cond = phi i64 [ %0, %cond.true ], [ %call3, %cond.false ]
  ret i64 %cond
}

; Function Attrs: mustprogress uwtable
define linkonce_odr hidden noundef i64 @_ZNK4absl12lts_2023080210CordBuffer6lengthEv(ptr noundef nonnull align 8 dereferenceable(16) %this) #5 comdat align 2 {
entry:
  %this.addr = alloca ptr, align 8
  store ptr %this, ptr %this.addr, align 8
  %this1 = load ptr, ptr %this.addr, align 8
  %rep_ = getelementptr inbounds %"class.absl::lts_20230802::CordBuffer", ptr %this1, i32 0, i32 0
  %call = call noundef zeroext i1 @_ZNK4absl12lts_2023080210CordBuffer3Rep8is_shortEv(ptr noundef nonnull align 8 dereferenceable(16) %rep_)
  br i1 %call, label %cond.true, label %cond.false

cond.true:                                        ; preds = %entry
  %rep_2 = getelementptr inbounds %"class.absl::lts_20230802::CordBuffer", ptr %this1, i32 0, i32 0
  %call3 = call noundef i64 @_ZNK4absl12lts_2023080210CordBuffer3Rep12short_lengthEv(ptr noundef nonnull align 8 dereferenceable(16) %rep_2)
  br label %cond.end

cond.false:                                       ; preds = %entry
  %rep_4 = getelementptr inbounds %"class.absl::lts_20230802::CordBuffer", ptr %this1, i32 0, i32 0
  %call5 = call noundef ptr @_ZNK4absl12lts_2023080210CordBuffer3Rep3repEv(ptr noundef nonnull align 8 dereferenceable(16) %rep_4)
  %length = getelementptr inbounds %"struct.absl::lts_20230802::cord_internal::CordRep", ptr %call5, i32 0, i32 0
  %0 = load i64, ptr %length, align 8
  br label %cond.end

cond.end:                                         ; preds = %cond.false, %cond.true
  %cond = phi i64 [ %call3, %cond.true ], [ %0, %cond.false ]
  ret i64 %cond
}

; Function Attrs: mustprogress uwtable
define linkonce_odr hidden noundef i64 @_ZNK4absl12lts_202308024Cord4sizeEv(ptr noundef nonnull align 8 dereferenceable(16) %this) #5 comdat align 2 {
entry:
  %this.addr = alloca ptr, align 8
  store ptr %this, ptr %this.addr, align 8
  %this1 = load ptr, ptr %this.addr, align 8
  %contents_ = getelementptr inbounds %"class.absl::lts_20230802::Cord", ptr %this1, i32 0, i32 0
  %call = call noundef i64 @_ZNK4absl12lts_202308024Cord9InlineRep4sizeEv(ptr noundef nonnull align 8 dereferenceable(16) %contents_)
  ret i64 %call
}

; Function Attrs: mustprogress uwtable
define noundef i64 @_ZNK6google8protobuf2io16CordOutputStream9ByteCountEv(ptr noundef nonnull align 8 dereferenceable(56) %this) unnamed_addr #5 align 2 {
entry:
  %this.addr = alloca ptr, align 8
  store ptr %this, ptr %this.addr, align 8
  %this1 = load ptr, ptr %this.addr, align 8
  %cord_ = getelementptr inbounds %"class.google::protobuf::io::CordOutputStream", ptr %this1, i32 0, i32 1
  %call = call noundef i64 @_ZNK4absl12lts_202308024Cord4sizeEv(ptr noundef nonnull align 8 dereferenceable(16) %cord_)
  %buffer_ = getelementptr inbounds %"class.google::protobuf::io::CordOutputStream", ptr %this1, i32 0, i32 4
  %call2 = call noundef i64 @_ZNK4absl12lts_2023080210CordBuffer6lengthEv(ptr noundef nonnull align 8 dereferenceable(16) %buffer_)
  %add = add i64 %call, %call2
  ret i64 %add
}