; Function Attrs: mustprogress nofree norecurse nosync nounwind willreturn memory(read, inaccessiblemem: none) uwtable
define noundef i64 @_ZNK6google8protobuf2io16CordOutputStream9ByteCountEv(ptr nocapture noundef nonnull readonly align 8 dereferenceable(56) %this) unnamed_addr #16 align 2 {
entry:
  %cord_ = getelementptr inbounds i8, ptr %this, i64 8
  %0 = load i8, ptr %cord_, align 8
  %1 = and i8 %0, 1
  %cmp.i.i.not.i.i = icmp eq i8 %1, 0
  br i1 %cmp.i.i.not.i.i, label %cond.false.i.i, label %cond.true.i.i

cond.true.i.i:                                    ; preds = %entry
  %rep.i.i.i.i.i = getelementptr inbounds i8, ptr %this, i64 16
  %2 = load ptr, ptr %rep.i.i.i.i.i, align 8
  %3 = load i64, ptr %2, align 8
  br label %_ZNK4absl12lts_202308024Cord4sizeEv.exit

cond.false.i.i:                                   ; preds = %entry
  %conv.i.i.i.i.i = sext i8 %0 to i64
  %shr.i.i.i.i.i = lshr exact i64 %conv.i.i.i.i.i, 1
  br label %_ZNK4absl12lts_202308024Cord4sizeEv.exit

_ZNK4absl12lts_202308024Cord4sizeEv.exit:         ; preds = %cond.true.i.i, %cond.false.i.i
  %cond.i.i = phi i64 [ %3, %cond.true.i.i ], [ %shr.i.i.i.i.i, %cond.false.i.i ]
  %buffer_ = getelementptr inbounds i8, ptr %this, i64 40
  %4 = load i8, ptr %buffer_, align 8
  %5 = and i8 %4, 1
  %cmp.i.not.i = icmp eq i8 %5, 0
  br i1 %cmp.i.not.i, label %cond.false.i, label %cond.true.i

cond.true.i:                                      ; preds = %_ZNK4absl12lts_202308024Cord4sizeEv.exit
  %6 = ashr i8 %4, 1
  %conv2.i.i = sext i8 %6 to i64
  br label %_ZNK4absl12lts_2023080210CordBuffer6lengthEv.exit

cond.false.i:                                     ; preds = %_ZNK4absl12lts_202308024Cord4sizeEv.exit
  %7 = load ptr, ptr %buffer_, align 8
  %8 = load i64, ptr %7, align 8
  br label %_ZNK4absl12lts_2023080210CordBuffer6lengthEv.exit

_ZNK4absl12lts_2023080210CordBuffer6lengthEv.exit: ; preds = %cond.true.i, %cond.false.i
  %cond.i = phi i64 [ %conv2.i.i, %cond.true.i ], [ %8, %cond.false.i ]
  %add = add i64 %cond.i, %cond.i.i
  ret i64 %add
}